(lp0
(dp1
Vip
p2
V127.0.0.1
p3
sVport
p4
I13367
sa(dp5
Vip
p6
V127.0.0.1
p7
sVport
p8
I13337
sa(dp9
Vip
p10
V176.58.109.91
p11
sVport
p12
I13333
sa(dp13
Vip
p14
Vplanetlab2.inf.ethz.ch
p15
sVport
p16
I13337
sa.