(lp0
(dp1
Vip
p2
V127.0.0.1
p3
sVport
p4
I13315
sa(dp5
Vip
p6
V127.0.0.1
p7
sVport
p8
I13325
sa(dp9
Vip
p10
V127.0.0.1
p11
sVport
p12
I13335
sa(dp13
Vip
p14
V127.0.0.1
p15
sVport
p16
I13345
sa(dp17
Vip
p18
V127.0.0.1
p19
sVport
p20
I13355
sa(dp21
Vip
p22
V127.0.0.1
p23
sVport
p24
I13365
sa(dp25
Vip
p26
V127.0.0.1
p27
sVport
p28
I13375
sa(dp29
Vip
p30
V127.0.0.1
p31
sVport
p32
I13385
sa(dp33
Vip
p34
V127.0.0.1
p35
sVport
p36
I13395
sa(dp37
Vip
p38
V127.0.0.1
p39
sVport
p40
I13317
sa(dp41
Vip
p42
V127.0.0.1
p43
sVport
p44
I13327
sa(dp45
Vip
p46
V127.0.0.1
p47
sVport
p48
I13337
sa(dp49
Vip
p50
V127.0.0.1
p51
sVport
p52
I13347
sa(dp53
Vip
p54
V127.0.0.1
p55
sVport
p56
I13357
sa(dp57
Vip
p58
V127.0.0.1
p59
sVport
p60
I13367
sa(dp61
Vip
p62
V127.0.0.1
p63
sVport
p64
I13377
sa(dp65
Vip
p66
V127.0.0.1
p67
sVport
p68
I13387
sa(dp69
Vip
p70
V127.0.0.1
p71
sVport
p72
I13397
sa(dp73
Vip
p74
V127.0.0.1
p75
sVport
p76
I13319
sa(dp77
Vip
p78
V127.0.0.1
p79
sVport
p80
I13329
sa(dp81
Vip
p82
V127.0.0.1
p83
sVport
p84
I13339
sa(dp85
Vip
p86
V127.0.0.1
p87
sVport
p88
I13349
sa(dp89
Vip
p90
V127.0.0.1
p91
sVport
p92
I13359
sa(dp93
Vip
p94
V127.0.0.1
p95
sVport
p96
I13369
sa(dp97
Vip
p98
V127.0.0.1
p99
sVport
p100
I13379
sa(dp101
Vip
p102
V127.0.0.1
p103
sVport
p104
I13389
sa(dp105
Vip
p106
V127.0.0.1
p107
sVport
p108
I13399
sa(dp109
Vip
p110
V176.58.109.91
p111
sVport
p112
I13333
sa(dp113
Vip
p114
Vplanetlab2.inf.ethz.ch
p115
sVport
p116
I13337
sa.